Certificate:
    Data:
        Version: 3 (0x2)
        Serial Number: 4386 (0x1122)
    Signature Algorithm: sha1WithRSAEncryption
        Issuer: C=US, ST=CA, L=San Jose, O=Wget Testing Department, OU=Testing, CN=WgetTesting/emailAddress=bugs-wget@gnu.org
        Validity
            Not Before: May  9 23:18:01 2017 GMT
            Not After : May  8 16:03:42 2017
        Subject: CN=WgetTestingServer, ST=CA, C=US/emailAddress=servertester, O=Serv
        Subject Public Key Info:
            Public Key Algorithm: rsaEncryption
                Public-Key: (4096 bit)
                Modulus:
                    00:ae:3f:e9:b2:ec:0e:04:a5:e6:e0:07:c0:80:ef:
                    e2:50:58:de:31:02:08:a5:33:3e:58:68:41:13:76:
                    64:cb:84:35:1a:1f:31:6c:4b:ad:11:da:0c:27:40:
                    c4:ff:0e:32:13:56:dd:0b:4c:eb:9e:6c:ee:67:3f:
                    16:57:d3:4c:5c:df:13:fe:15:38:f4:dd:04:8b:b5:
                    dc:06:9c:5b:11:bb:93:88:5e:a0:48:c2:3d:74:d3:
                    2b:20:53:8f:91:fa:7d:3a:97:35:54:d2:36:95:9e:
                    81:24:66:b8:eb:91:9e:a2:4e:9b:34:c2:6c:b0:52:
                    c9:1b:8c:c8:13:37:a1:d6:48:6a:90:7b:ad:22:9e:
                    58:01:7c:87:44:5f:97:69:a9:bd:96:74:b7:0e:eb:
                    8e:4a:f8:19:e4:e2:4d:80:31:e5:19:5a:cc:cc:00:
                    9c:94:3d:b2:27:26:5c:9c:50:35:92:2c:3b:77:38:
                    f8:4c:99:99:89:9e:82:1f:f6:da:40:4d:d3:bf:60:
                    f9:a3:23:cc:b8:fe:bb:e7:48:e2:5d:e8:8f:bc:16:
                    1a:1f:8c:10:fe:92:b9:de:80:00:6f:45:db:24:01:
                    68:4a:b6:ce:16:2f:07:b2:bc:61:ff:94:77:76:ca:
                    d6:8d:f4:f1:ea:10:7b:df:59:ac:1b:75:69:b9:3f:
                    50:dc:f5:f3:28:b1:9a:c0:a1:67:45:87:88:1c:db:
                    4a:53:05:47:7e:cb:a7:ef:de:ed:84:af:e0:48:4d:
                    0c:2a:e2:9f:66:3e:20:40:a5:4b:ef:7b:ff:fd:50:
                    8d:2c:87:27:a3:94:0c:16:44:bc:21:54:84:0b:86:
                    34:fd:9b:53:06:9d:31:81:27:e7:4e:28:0c:69:5d:
                    fd:10:4e:6e:02:20:91:6b:58:5b:2d:c9:f7:b7:e2:
                    64:7c:a9:ab:e0:a3:2b:05:f5:33:11:11:db:52:39:
                    b3:a2:74:58:8a:5b:e0:ac:78:14:4c:ec:c0:e4:1f:
                    6b:6f:f5:72:36:bb:15:53:4c:59:7e:07:d0:46:ad:
                    88:cc:49:c5:ef:a8:0a:35:68:e5:5d:45:6d:d3:fe:
                    0e:60:eb:d8:96:25:e4:50:7e:e2:66:af:e3:dd:fa:
                    0f:98:2b:9e:ef:e7:f4:f0:27:e7:23:a2:7c:e2:82:
                    2a:fd:d6:18:ee:bc:0d:fc:a0:7d:8e:7c:b4:05:a4:
                    8e:6f:4d:1e:c8:70:4c:2e:b4:36:74:68:c3:bc:61:
                    f6:f8:b2:bb:dc:b2:2f:e9:90:82:cf:0e:09:bf:89:
                    3d:30:7e:0c:71:76:d0:fa:5b:4b:70:fe:0b:c5:ce:
                    03:1f:c4:b8:13:f2:e6:dd:b4:86:4f:81:56:41:e8:
                    04:ea:43
                Exponent: 65537 (0x10001)
        X509v3 extensions:
            X509v3 Basic Constraints: critical
                CA:TRUE
            X509v3 Subject Key Identifier: 
                79:4B:2E:34:36:F0:56:99:AF:B8:D3:E3:6D:26:CF:18:12:59:7A:4E
            X509v3 Authority Key Identifier: 
                keyid:17:ED:93:43:8F:A7:A6:00:75:D4:E8:B6:82:0D:88:37:7E:C0:6D:08

            X509v3 Key Usage: 
                Digital Signature, Key Encipherment, Certificate Sign, CRL Sign
            X509v3 Extended Key Usage: 
                TLS Web Server Authentication
            X509v3 CRL Distribution Points: 

                Full Name:
                  URI:http://test.wgettest.org/Bogus.crl

                Full Name:
                  URI:http://test.wgettest.org/Bogus.crl

            X509v3 Subject Alternative Name: 
                DNS:WgetTestingServer
            Authority Information Access: 
                CA Issuers - URI:http://test.wgettest.com/Bogus.crt
                CA Issuers - URI:http://test.wgettest.com/Bogus.crt
                OCSP - URI:http://test.wgettest.com/ocsp/
                OCSP - URI:http://test.wgettest.com/ocsp/

    Signature Algorithm: sha1WithRSAEncryption
         54:0d:c4:43:cb:0d:9e:0e:33:00:c8:03:cd:f8:cc:96:5b:8e:
         78:35:87:91:ee:4d:8e:9e:84:07:c8:4a:82:cc:6b:34:5a:0a:
         25:45:ad:e6:ef:3e:6d:78:5d:9e:28:07:8a:c8:42:8a:b6:62:
         de:8a:08:02:e8:b2:64:6e:a5:7b:ad:90:b0:4a:c8:ca:65:d4:
         e8:cf:5a:3e:e0:45:2b:c3:6c:a8:2f:d7:5d:aa:e0:53:f6:54:
         d1:76:5e:9e:02:6e:0c:a4:b8:73:8f:7f:8d:e3:a7:54:f6:5b:
         d2:f8:25:61:a5:2c:ce:ab:41:dc:b1:ca:86:cc:5b:a3:cc:7a:
         90:44:dd:54:69:b0:f7:e1:19:6b:94:09:9e:44:5d:e5:f3:97:
         99:d1:9d:2b:4d:b4:e1:3e:2a:3e:73:d3:9c:e5:97:9f:02:50:
         06:31:28:86:d4:48:44:96:59:9a:18:ad:c3:61:28:79:e8:d9:
         f0:fb:8b:d5:54:70:66:ab:87:c9:3f:40:ac:1a:c1:74:55:89:
         ab:e1:8e:6d:d8:69:fb:04:8b:2f:69:16:21:fa:ec:b5:af:39:
         8a:e2:48:bd:f4:64:c7:15:c8:21:3e:3a:02:b1:55:ff:02:60:
         09:8f:ae:03:8b:2c:1f:eb:ef:20:1b:59:ca:00:e7:4c:8b:8f:
         91:22:3e:ac:84:96:54:15:53:5d:fb:23:c5:53:f4:75:1c:68:
         3b:5a:e4:f6:26:40:7c:be:cc:af:a0:4a:7e:2f:64:8d:a6:ba:
         f3:bb:e2:e3:a6:94:07:ca:4b:bc:3b:1c:75:70:23:10:f2:71:
         95:86:ac:bf:36:db:a4:56:ba:bb:7e:63:82:ba:ca:3a:a4:36:
         cb:cb:7f:47:53:d6:92:8d:ef:8b:75:24:7b:49:89:a5:f6:73:
         f9:f2:dd:66:77:fe:1e:93:80:b0:37:b5:47:16:ec:97:f8:d2:
         69:9b:f4:11:f3:bc:3a:b9:3e:4a:08:29:67:ea:38:36:41:6e:
         58:f7:fb:2b:6f:31:d6:6c:1f:ce:6f:12:ea:bd:6c:00:06:f4:
         65:6b:fa:8a:0a:13:a4:19:67:91:a3:3b:6c:2c:25:89:6a:83:
         95:ce:43:2d:6e:7c:ec:4d:5e:7b:59:57:7f:97:ae:79:67:50:
         e1:7c:42:7e:95:f5:54:4f:ef:88:70:25:9d:b5:2c:74:7f:f8:
         c5:d6:f9:8a:72:a2:e6:08:8d:50:05:e9:72:4d:d0:dd:70:8b:
         d7:6a:27:af:82:b8:47:dd:83:15:0c:a5:d3:77:fe:13:16:f3:
         e0:a4:34:29:98:58:a4:29:94:85:92:e0:26:b6:14:f5:a6:82:
         b7:7c:45:22:0d:aa:40:c6
-----BEGIN CERTIFICATE-----
MIIHPTCCBSWgAwIBAgICESIwDQYJKoZIhvcNAQEFBQAwgZkxCzAJBgNVBAYTAlVT
MQswCQYDVQQIDAJDQTERMA8GA1UEBwwIU2FuIEpvc2UxIDAeBgNVBAoMF1dnZXQg
VGVzdGluZyBEZXBhcnRtZW50MRAwDgYDVQQLDAdUZXN0aW5nMRQwEgYDVQQDDAtX
Z2V0VGVzdGluZzEgMB4GCSqGSIb3DQEJARYRYnVncy13Z2V0QGdudS5vcmcwIhcN
MTcwNTA5MjMxODAxWhcRMTcwNTA4MTYwMzQyLTA3MDAwYjEaMBgGA1UEAwwRV2dl
dFRlc3RpbmdTZXJ2ZXIxCzAJBgNVBAgMAkNBMQswCQYDVQQGEwJVUzEbMBkGCSqG
SIb3DQEJARYMc2VydmVydGVzdGVyMQ0wCwYDVQQKDARTZXJ2MIICIjANBgkqhkiG
9w0BAQEFAAOCAg8AMIICCgKCAgEArj/psuwOBKXm4AfAgO/iUFjeMQIIpTM+WGhB
E3Zky4Q1Gh8xbEutEdoMJ0DE/w4yE1bdC0zrnmzuZz8WV9NMXN8T/hU49N0Ei7Xc
BpxbEbuTiF6gSMI9dNMrIFOPkfp9Opc1VNI2lZ6BJGa465Geok6bNMJssFLJG4zI
Ezeh1khqkHutIp5YAXyHRF+Xaam9lnS3DuuOSvgZ5OJNgDHlGVrMzACclD2yJyZc
nFA1kiw7dzj4TJmZiZ6CH/baQE3Tv2D5oyPMuP6750jiXeiPvBYaH4wQ/pK53oAA
b0XbJAFoSrbOFi8Hsrxh/5R3dsrWjfTx6hB731msG3VpuT9Q3PXzKLGawKFnRYeI
HNtKUwVHfsun797thK/gSE0MKuKfZj4gQKVL73v//VCNLIcno5QMFkS8IVSEC4Y0
/ZtTBp0xgSfnTigMaV39EE5uAiCRa1hbLcn3t+JkfKmr4KMrBfUzERHbUjmzonRY
ilvgrHgUTOzA5B9rb/VyNrsVU0xZfgfQRq2IzEnF76gKNWjlXUVt0/4OYOvYliXk
UH7iZq/j3foPmCue7+f08CfnI6J84oIq/dYY7rwN/KB9jny0BaSOb00eyHBMLrQ2
dGjDvGH2+LK73LIv6ZCCzw4Jv4k9MH4McXbQ+ltLcP4Lxc4DH8S4E/Lm3bSGT4FW
QegE6kMCAwEAAaOCAb8wggG7MA8GA1UdEwEB/wQFMAMBAf8wHQYDVR0OBBYEFHlL
LjQ28FaZr7jT420mzxgSWXpOMB8GA1UdIwQYMBaAFBftk0OPp6YAddTotoINiDd+
wG0IMAsGA1UdDwQEAwIBpjATBgNVHSUEDDAKBggrBgEFBQcDATBdBgNVHR8EVjBU
MCigJqAkhiJodHRwOi8vdGVzdC53Z2V0dGVzdC5vcmcvQm9ndXMuY3JsMCigJqAk
hiJodHRwOi8vdGVzdC53Z2V0dGVzdC5vcmcvQm9ndXMuY3JsMBwGA1UdEQQVMBOC
EVdnZXRUZXN0aW5nU2VydmVyMIHIBggrBgEFBQcBAQSBuzCBuDAuBggrBgEFBQcw
AoYiaHR0cDovL3Rlc3Qud2dldHRlc3QuY29tL0JvZ3VzLmNydDAuBggrBgEFBQcw
AoYiaHR0cDovL3Rlc3Qud2dldHRlc3QuY29tL0JvZ3VzLmNydDAqBggrBgEFBQcw
AYYeaHR0cDovL3Rlc3Qud2dldHRlc3QuY29tL29jc3AvMCoGCCsGAQUFBzABhh5o
dHRwOi8vdGVzdC53Z2V0dGVzdC5jb20vb2NzcC8wDQYJKoZIhvcNAQEFBQADggIB
AFQNxEPLDZ4OMwDIA834zJZbjng1h5HuTY6ehAfISoLMazRaCiVFrebvPm14XZ4o
B4rIQoq2Yt6KCALosmRupXutkLBKyMpl1OjPWj7gRSvDbKgv112q4FP2VNF2Xp4C
bgykuHOPf43jp1T2W9L4JWGlLM6rQdyxyobMW6PMepBE3VRpsPfhGWuUCZ5EXeXz
l5nRnStNtOE+Kj5z05zll58CUAYxKIbUSESWWZoYrcNhKHno2fD7i9VUcGarh8k/
QKwawXRViavhjm3YafsEiy9pFiH67LWvOYriSL30ZMcVyCE+OgKxVf8CYAmPrgOL
LB/r7yAbWcoA50yLj5EiPqyEllQVU137I8VT9HUcaDta5PYmQHy+zK+gSn4vZI2m
uvO74uOmlAfKS7w7HHVwIxDycZWGrL8226RWurt+Y4K6yjqkNsvLf0dT1pKN74t1
JHtJiaX2c/ny3WZ3/h6TgLA3tUcW7Jf40mmb9BHzvDq5PkoIKWfqODZBblj3+ytv
MdZsH85vEuq9bAAG9GVr+ooKE6QZZ5GjO2wsJYlqg5XOQy1ufOxNXntZV3+Xrnln
UOF8Qn6V9VRP74hwJZ21LHR/+MXW+YpyouYIjVAF6XJN0N1wi9dqJ6+CuEfdgxUM
pdN3/hMW8+CkNCmYWKQplIWS4Ca2FPWmgrd8RSINqkDG
-----END CERTIFICATE-----
