Certificate:
    Data:
        Version: 3 (0x2)
        Serial Number: 4387 (0x1123)
    Signature Algorithm: sha1WithRSAEncryption
        Issuer: C=US, ST=CA, L=San Jose, O=Wget Testing Department, OU=Testing, CN=WgetTesting/emailAddress=bugs-wget@gnu.org
        Validity
            Not Before: May  4 16:30:14 2037
            Not After : May  9 23:30:46 2019 GMT
        Subject: CN=WgetTestingServer, ST=CA, C=US/emailAddress=servertester, O=Serv
        Subject Public Key Info:
            Public Key Algorithm: rsaEncryption
                Public-Key: (4096 bit)
                Modulus:
                    00:a4:53:f9:34:0a:65:4f:8f:f3:c5:6f:9f:84:5c:
                    66:72:d7:7e:6c:c4:c1:ed:08:48:78:29:d4:6e:58:
                    7c:17:23:41:58:e7:39:82:e4:78:d2:07:c2:38:26:
                    33:14:1f:9f:02:9a:14:af:25:5f:da:1d:1e:aa:12:
                    13:eb:e2:c5:ef:ec:6b:6d:0f:c9:97:94:e9:dd:08:
                    a6:7c:68:87:a4:c2:28:f3:08:dd:50:de:6a:ba:35:
                    80:c0:ee:82:16:62:5c:cc:79:48:f1:a8:4d:5a:fd:
                    f1:dc:90:a9:17:84:61:6a:27:57:75:30:f2:e3:6d:
                    6f:29:0d:5e:09:df:c7:5c:4e:c9:b5:66:43:b3:1f:
                    b4:41:cf:c7:da:5b:29:6b:db:ef:ef:a9:69:4b:a5:
                    6c:67:82:e2:df:00:10:f1:49:f2:b2:80:9f:d0:a5:
                    98:5f:d7:33:d2:07:92:69:e6:73:fa:c7:34:38:f2:
                    22:f6:f1:e6:6f:d1:2d:d1:ce:47:29:97:78:24:0c:
                    ef:d6:69:99:9d:e8:2c:d3:70:8b:34:eb:85:ac:b3:
                    3b:93:4f:fa:44:fd:c4:6d:9a:91:c5:58:f1:7b:05:
                    b4:68:8e:4c:5b:89:2a:4f:b4:4c:97:88:ef:66:9c:
                    67:34:17:96:c4:10:ff:4a:19:b3:bd:da:56:88:57:
                    07:7a:21:1e:89:2b:22:ff:58:63:e1:48:6c:62:98:
                    19:4a:52:45:1c:cc:21:70:f8:aa:42:9d:c6:0d:85:
                    4c:5e:b0:99:34:8e:23:cf:ed:0b:0e:72:8a:1a:17:
                    c4:45:19:fa:1c:17:0f:ae:05:54:8a:73:b4:78:14:
                    6e:ab:00:63:e4:8c:c7:b6:fa:88:0e:0e:09:e7:3f:
                    39:32:b9:0e:73:95:8f:ad:55:20:a1:0a:aa:04:33:
                    c0:ba:c1:93:4e:67:42:c3:db:fa:5e:3d:7a:6c:0b:
                    ec:c1:82:b6:2e:b2:8c:bb:44:f8:88:1f:36:d4:e5:
                    2b:74:4c:ea:b2:31:a3:d5:cb:34:22:c5:03:62:5a:
                    66:28:2d:34:36:85:a0:d7:b0:1f:e0:d6:01:ec:24:
                    60:c9:ed:83:bd:1d:0c:e7:74:1e:3c:2c:8c:6d:25:
                    df:83:bd:b7:67:6a:37:c8:6c:75:53:7f:80:06:02:
                    b7:72:05:a1:71:a6:bb:09:ea:ba:51:99:31:e4:c4:
                    d8:16:c0:55:af:69:ae:75:ee:82:36:1c:56:f6:f3:
                    a7:d9:41:2a:31:a5:6b:5c:67:bb:b8:b6:5f:9e:58:
                    5c:85:5c:02:ae:03:22:ea:e1:58:56:aa:8b:73:72:
                    d6:c1:3c:1f:c2:e0:77:d3:45:0f:dc:ba:0c:e6:20:
                    01:45:63
                Exponent: 65537 (0x10001)
        X509v3 extensions:
            X509v3 Basic Constraints: critical
                CA:TRUE
            X509v3 Subject Key Identifier: 
                06:80:9F:BB:A8:BB:3C:83:2E:8B:20:2A:07:77:E7:92:0C:56:5E:40
            X509v3 Authority Key Identifier: 
                keyid:17:ED:93:43:8F:A7:A6:00:75:D4:E8:B6:82:0D:88:37:7E:C0:6D:08

            X509v3 Key Usage: 
                Digital Signature, Key Encipherment, Certificate Sign, CRL Sign
            X509v3 Extended Key Usage: 
                TLS Web Server Authentication
            X509v3 CRL Distribution Points: 

                Full Name:
                  URI:http://test.wgettest.org/Bogus.crl

                Full Name:
                  URI:http://test.wgettest.org/Bogus.crl

            X509v3 Subject Alternative Name: 
                DNS:WgetTestingServer
            Authority Information Access: 
                CA Issuers - URI:http://test.wgettest.com/Bogus.crt
                CA Issuers - URI:http://test.wgettest.com/Bogus.crt
                OCSP - URI:http://test.wgettest.com/ocsp/
                OCSP - URI:http://test.wgettest.com/ocsp/

    Signature Algorithm: sha1WithRSAEncryption
         8e:3b:2c:cc:f7:c5:c8:6e:3b:e6:30:12:26:2d:ab:d8:2e:16:
         e1:57:cf:ff:3c:c4:c9:83:79:29:fc:68:53:24:a2:97:44:2f:
         a9:8d:1d:de:a4:2c:5c:e5:d5:e5:f8:21:aa:93:fc:fc:52:62:
         9b:a5:89:e1:17:66:fd:4f:94:41:73:5d:a2:b8:1a:0b:14:20:
         79:09:fd:86:2e:97:c2:a8:0a:61:2c:07:f2:2e:92:54:ec:24:
         2d:19:65:47:0b:7d:81:83:e4:7f:09:75:b3:5c:bb:72:d1:5c:
         9b:8e:e9:a1:b5:32:e3:cc:35:97:17:22:59:79:fa:22:10:0e:
         6e:5e:b9:3b:07:69:2a:00:9c:3f:63:c4:b0:68:9e:33:e8:16:
         39:65:77:6a:9e:f0:1c:ff:b7:ce:62:3a:cc:d6:85:ef:0e:bc:
         73:8f:ba:b4:06:e7:62:94:4f:89:cb:7f:57:76:b4:10:48:5e:
         43:cb:16:09:2b:f7:c3:49:c1:c9:94:b2:2e:2e:7f:f6:64:83:
         b7:d8:5e:ca:64:e3:a5:7f:79:12:e4:04:c7:70:df:16:71:3f:
         50:74:39:a0:38:9b:3e:7c:4b:6f:08:59:70:ec:d0:aa:f5:c5:
         18:11:de:c7:7a:5e:82:cf:a1:60:41:7a:5d:8c:de:dc:9e:6e:
         8d:5b:b6:c8:72:bd:13:f8:01:2f:2d:13:82:e0:cd:b8:41:6c:
         62:d3:1e:c8:b3:a7:89:f8:74:5f:17:ec:28:07:82:68:28:32:
         fa:21:16:2f:c1:72:bf:95:78:4d:19:da:d2:46:10:8c:b3:81:
         c9:59:0f:45:fc:d5:b4:85:22:c7:23:b2:3e:be:25:33:b1:fb:
         70:7e:8c:ff:59:8f:6b:6d:9f:24:ba:9c:9b:f7:0c:bd:4a:df:
         69:b8:f4:47:14:8c:72:82:87:e6:b0:28:bf:0c:41:0e:23:ce:
         e4:6f:25:68:ef:11:eb:78:6d:67:ac:9d:ef:38:0c:fb:32:c2:
         c3:e1:4c:f3:c6:d1:5a:78:ce:c7:3c:8a:95:9c:8c:a2:82:1b:
         8d:ac:6a:14:fd:dc:5d:11:86:4f:e0:ea:ae:00:0c:2d:13:ca:
         c9:26:85:a4:cb:6b:13:52:7c:a7:f7:3b:27:2e:a4:f0:49:50:
         ca:08:a3:d3:4d:09:35:86:2f:af:65:f3:20:e2:2d:3c:b0:da:
         66:c7:f0:bb:a3:22:89:9c:94:d7:4a:89:38:8f:90:72:ba:a3:
         03:c3:9a:9e:93:d7:b1:8b:eb:2c:10:7e:7a:d3:7a:00:5d:34:
         8f:ab:6c:a6:27:a4:29:9b:8c:9c:e7:c9:21:77:4b:db:63:be:
         63:ed:e5:6d:ee:39:1a:23
-----BEGIN CERTIFICATE-----
MIIHPTCCBSWgAwIBAgICESMwDQYJKoZIhvcNAQEFBQAwgZkxCzAJBgNVBAYTAlVT
MQswCQYDVQQIDAJDQTERMA8GA1UEBwwIU2FuIEpvc2UxIDAeBgNVBAoMF1dnZXQg
VGVzdGluZyBEZXBhcnRtZW50MRAwDgYDVQQLDAdUZXN0aW5nMRQwEgYDVQQDDAtX
Z2V0VGVzdGluZzEgMB4GCSqGSIb3DQEJARYRYnVncy13Z2V0QGdudS5vcmcwIhcR
MzcwNTA0MTYzMDE0LTA3MDAXDTE5MDUwOTIzMzA0NlowYjEaMBgGA1UEAwwRV2dl
dFRlc3RpbmdTZXJ2ZXIxCzAJBgNVBAgMAkNBMQswCQYDVQQGEwJVUzEbMBkGCSqG
SIb3DQEJARYMc2VydmVydGVzdGVyMQ0wCwYDVQQKDARTZXJ2MIICIjANBgkqhkiG
9w0BAQEFAAOCAg8AMIICCgKCAgEApFP5NAplT4/zxW+fhFxmctd+bMTB7QhIeCnU
blh8FyNBWOc5guR40gfCOCYzFB+fApoUryVf2h0eqhIT6+LF7+xrbQ/Jl5Tp3Qim
fGiHpMIo8wjdUN5qujWAwO6CFmJczHlI8ahNWv3x3JCpF4RhaidXdTDy421vKQ1e
Cd/HXE7JtWZDsx+0Qc/H2lspa9vv76lpS6VsZ4Li3wAQ8UnysoCf0KWYX9cz0geS
aeZz+sc0OPIi9vHmb9Et0c5HKZd4JAzv1mmZnegs03CLNOuFrLM7k0/6RP3EbZqR
xVjxewW0aI5MW4kqT7RMl4jvZpxnNBeWxBD/ShmzvdpWiFcHeiEeiSsi/1hj4Uhs
YpgZSlJFHMwhcPiqQp3GDYVMXrCZNI4jz+0LDnKKGhfERRn6HBcPrgVUinO0eBRu
qwBj5IzHtvqIDg4J5z85MrkOc5WPrVUgoQqqBDPAusGTTmdCw9v6Xj16bAvswYK2
LrKMu0T4iB821OUrdEzqsjGj1cs0IsUDYlpmKC00NoWg17Af4NYB7CRgye2DvR0M
53QePCyMbSXfg723Z2o3yGx1U3+ABgK3cgWhcaa7Ceq6UZkx5MTYFsBVr2mude6C
NhxW9vOn2UEqMaVrXGe7uLZfnlhchVwCrgMi6uFYVqqLc3LWwTwfwuB300UP3LoM
5iABRWMCAwEAAaOCAb8wggG7MA8GA1UdEwEB/wQFMAMBAf8wHQYDVR0OBBYEFAaA
n7uouzyDLosgKgd355IMVl5AMB8GA1UdIwQYMBaAFBftk0OPp6YAddTotoINiDd+
wG0IMAsGA1UdDwQEAwIBpjATBgNVHSUEDDAKBggrBgEFBQcDATBdBgNVHR8EVjBU
MCigJqAkhiJodHRwOi8vdGVzdC53Z2V0dGVzdC5vcmcvQm9ndXMuY3JsMCigJqAk
hiJodHRwOi8vdGVzdC53Z2V0dGVzdC5vcmcvQm9ndXMuY3JsMBwGA1UdEQQVMBOC
EVdnZXRUZXN0aW5nU2VydmVyMIHIBggrBgEFBQcBAQSBuzCBuDAuBggrBgEFBQcw
AoYiaHR0cDovL3Rlc3Qud2dldHRlc3QuY29tL0JvZ3VzLmNydDAuBggrBgEFBQcw
AoYiaHR0cDovL3Rlc3Qud2dldHRlc3QuY29tL0JvZ3VzLmNydDAqBggrBgEFBQcw
AYYeaHR0cDovL3Rlc3Qud2dldHRlc3QuY29tL29jc3AvMCoGCCsGAQUFBzABhh5o
dHRwOi8vdGVzdC53Z2V0dGVzdC5jb20vb2NzcC8wDQYJKoZIhvcNAQEFBQADggIB
AI47LMz3xchuO+YwEiYtq9guFuFXz/88xMmDeSn8aFMkopdEL6mNHd6kLFzl1eX4
IaqT/PxSYpulieEXZv1PlEFzXaK4GgsUIHkJ/YYul8KoCmEsB/IuklTsJC0ZZUcL
fYGD5H8JdbNcu3LRXJuO6aG1MuPMNZcXIll5+iIQDm5euTsHaSoAnD9jxLBonjPo
Fjlld2qe8Bz/t85iOszWhe8OvHOPurQG52KUT4nLf1d2tBBIXkPLFgkr98NJwcmU
si4uf/Zkg7fYXspk46V/eRLkBMdw3xZxP1B0OaA4mz58S28IWXDs0Kr1xRgR3sd6
XoLPoWBBel2M3tyebo1btshyvRP4AS8tE4LgzbhBbGLTHsizp4n4dF8X7CgHgmgo
MvohFi/Bcr+VeE0Z2tJGEIyzgclZD0X81bSFIscjsj6+JTOx+3B+jP9Zj2ttnyS6
nJv3DL1K32m49EcUjHKCh+awKL8MQQ4jzuRvJWjvEet4bWesne84DPsywsPhTPPG
0Vp4zsc8ipWcjKKCG42sahT93F0Rhk/g6q4ADC0TyskmhaTLaxNSfKf3OycupPBJ
UMoIo9NNCTWGL69l8yDiLTyw2mbH8LujIomclNdKiTiPkHK6owPDmp6T17GL6ywQ
fnrTegBdNI+rbKYnpCmbjJznySF3S9tjvmPt5W3uORoj
-----END CERTIFICATE-----
