Certificate:
    Data:
        Version: 3 (0x2)
        Serial Number: 1 (0x1)
    Signature Algorithm: sha1WithRSAEncryption
        Issuer: C=US, ST=CA, L=San Jose, O=Wget Testing Department, OU=Testing, CN=WgetTesting/emailAddress=bugs-wget@gnu.org
        Validity
            Not Before: May 15 11:05:06 2017 GMT
            Not After : May 14 09:05:07 2019 GMT
        Subject: CN=WgetTestingServer, ST=CA, C=US/emailAddress=ServerTester, O=Dis
        Subject Public Key Info:
            Public Key Algorithm: rsaEncryption
                Public-Key: (4096 bit)
                Modulus:
                    00:ca:17:aa:3b:2a:d2:08:27:1d:3b:74:26:a5:8c:
                    2b:b9:79:55:07:0b:7a:5e:ba:1e:25:ae:25:0d:e4:
                    3a:a2:d2:10:04:dc:87:fb:32:cd:1b:d4:fe:49:77:
                    d6:b2:0e:86:dd:1f:00:90:63:46:ac:a9:ba:32:7d:
                    e4:bf:2a:14:36:f6:88:6b:0f:d0:c0:5e:ea:f9:f0:
                    9e:7a:08:0d:19:c6:6c:63:16:6c:e6:4b:09:06:e0:
                    f2:59:13:a0:02:b0:47:b3:88:77:28:90:8c:30:b7:
                    a9:98:20:51:74:74:c4:73:9b:7f:d3:52:42:3e:85:
                    58:40:c1:e7:04:10:93:d2:89:46:e6:c2:b5:91:e8:
                    f9:4f:5b:f4:e1:62:ef:2d:a6:65:f3:ab:80:a7:eb:
                    12:b6:e1:6c:07:fe:9f:12:a3:bc:73:cd:af:45:2e:
                    0d:40:f6:cc:7c:33:d2:e7:39:62:42:85:48:ef:b4:
                    d8:2f:5e:ce:9e:ed:0e:ee:40:b8:b1:00:05:e8:5e:
                    0e:ee:96:21:4d:33:aa:83:bc:26:db:1f:fb:34:8d:
                    ba:a5:7f:f3:04:71:0e:84:e1:17:f1:3b:0a:b7:d1:
                    e0:64:6b:93:61:1c:1e:19:ed:bf:15:b4:e1:37:74:
                    04:78:b8:6d:86:80:4d:03:37:24:67:c1:b6:68:f8:
                    a3:e2:a2:df:09:8f:cc:c4:d1:95:07:f0:36:21:32:
                    f8:5c:61:89:fc:fb:5e:b7:96:6e:16:82:51:b2:99:
                    66:04:9c:e5:b4:64:60:cb:0d:58:fe:63:8d:ee:2b:
                    26:45:5e:69:52:1e:f4:cf:85:1d:94:49:8b:86:27:
                    1a:a8:a1:16:20:6a:ad:89:9e:48:a0:0b:df:d9:0c:
                    31:2e:e3:4a:00:8e:36:43:83:d3:11:51:26:58:b1:
                    7b:e9:86:9f:da:be:67:6d:27:e9:08:e3:6a:41:78:
                    bf:d2:be:1c:41:ec:62:5f:8c:2d:31:f7:2c:23:b4:
                    81:65:fc:55:ab:67:68:c0:b8:b8:0e:df:6a:6e:95:
                    df:84:c0:33:d3:7e:5b:ae:79:3e:d7:1e:80:57:0b:
                    c2:bf:a3:b0:9a:e4:26:62:11:c5:f4:95:23:c1:2a:
                    5d:80:96:c5:dd:ea:cb:88:de:6b:92:cd:ac:de:f1:
                    f3:8d:f9:51:16:38:f0:96:4e:6b:26:1f:c3:c0:d2:
                    d1:15:6d:2b:63:fe:3c:48:79:8a:93:fa:2b:0a:fb:
                    6f:37:c5:4b:e7:5a:04:e9:8a:ec:77:e8:ad:82:a2:
                    31:a6:46:04:84:dc:e8:25:3f:b7:4f:08:a4:3f:7d:
                    ae:eb:0b:76:c7:8d:fc:bf:23:4b:9b:a5:7c:a5:a1:
                    b4:51:c1
                Exponent: 65537 (0x10001)
        X509v3 extensions:
            X509v3 Basic Constraints: critical
                CA:TRUE
            X509v3 Subject Key Identifier: 
                C4:88:B3:3C:7C:99:A8:46:A7:D8:A4:E8:D7:DE:0C:13:13:78:84:81
            X509v3 Authority Key Identifier: 
                keyid:17:ED:93:43:8F:A7:A6:00:75:D4:E8:B6:82:0D:88:37:7E:C0:6D:08

            X509v3 Key Usage: 
                Digital Signature, Key Encipherment, Certificate Sign, CRL Sign
            X509v3 Extended Key Usage: 
                TLS Web Server Authentication
            X509v3 CRL Distribution Points: 

                Full Name:
                  URI:http://test.wgettest.org/Bogus.crl

                Full Name:
                  URI:http://test.wgettest.org/Bogus.crl

            X509v3 Subject Alternative Name: 
                DNS:WgetTestingServer
            Authority Information Access: 
                CA Issuers - URI:http://test.wgettest.com/Bogus.crt
                CA Issuers - URI:http://test.wgettest.com/Bogus.crt
                OCSP - URI:http://test.wgettest.com/ocsp/
                OCSP - URI:http://test.wgettest.com/ocsp/

    Signature Algorithm: sha1WithRSAEncryption
         1d:34:a7:ec:7d:44:ae:7a:f6:42:9b:a3:00:80:1c:b7:07:c8:
         b1:af:4a:01:bb:de:86:8b:e0:e5:75:ef:43:a4:67:b2:57:72:
         4c:23:06:a7:63:1b:ee:af:9b:10:41:02:f1:d3:db:46:c6:9b:
         be:3b:b4:01:06:52:8e:90:eb:a1:22:b5:fb:dd:a3:7e:34:6e:
         59:8e:e0:8a:9f:ce:47:64:01:50:1d:36:5a:f0:72:04:93:05:
         cb:1a:5a:6e:8b:33:0b:3b:60:79:3c:5f:ba:e3:f1:7a:54:60:
         67:e7:fb:5c:87:e2:02:49:5e:50:02:3c:72:38:19:d1:99:59:
         a1:3f:c4:fd:82:06:66:36:e4:0f:b0:9d:cd:0b:08:c4:67:15:
         09:9f:91:61:f8:e8:41:a4:19:18:ef:74:70:23:ca:b5:4b:ef:
         eb:b4:26:73:e4:6d:50:02:7c:bb:d2:0f:94:f8:b6:2b:86:4c:
         d4:5a:6b:35:05:fa:64:c9:71:65:2b:f4:30:bf:37:a6:4b:d1:
         88:bd:f7:74:ab:6e:74:b1:8d:46:a3:35:ce:24:9b:6e:49:7f:
         e1:15:43:53:ad:a3:dd:e8:ca:1b:0f:d4:3f:18:01:f6:7d:c1:
         84:16:0c:5f:7c:38:8f:f9:c9:98:dd:b2:d8:17:64:55:2d:86:
         fe:47:8f:04:09:11:c9:b6:f5:7f:d6:26:eb:b0:05:3a:bc:04:
         91:a8:a1:53:eb:24:ea:74:c9:ec:23:d2:8f:d1:2e:67:f8:9b:
         19:f3:06:bc:56:a9:64:81:ed:a7:68:24:23:30:a9:ac:bc:b3:
         d1:91:05:1c:fe:81:b0:e2:f9:e3:7b:cb:71:b0:b4:85:74:0d:
         fc:90:31:06:bc:c5:3c:1f:3a:04:81:1c:f3:c2:8a:97:50:c3:
         95:98:a8:c6:e5:d9:3f:72:41:dc:31:02:3e:c4:66:f9:6b:cd:
         fa:e3:cf:40:f4:6a:15:28:a3:41:5e:47:c9:a1:ba:5f:73:74:
         39:b2:37:4c:d7:dd:81:8e:52:c4:f6:a0:c9:f0:8e:83:f5:8e:
         e1:2f:0e:e7:2c:04:d7:28:bb:4d:e9:b4:57:59:5d:99:db:42:
         cb:be:ad:35:b8:c6:b3:41:2c:2c:d9:20:56:81:d4:64:34:6c:
         d1:65:79:16:62:76:f1:4c:59:17:66:e4:9f:c9:48:a5:ff:d7:
         49:25:04:95:be:70:b3:2e:13:89:1f:59:92:11:3a:6c:31:54:
         1f:f6:4c:6d:d8:e0:6b:e0:b7:46:e0:b7:bb:06:57:78:04:1b:
         e9:88:b5:00:00:82:3e:2e:c2:a0:da:77:48:01:c8:c2:0f:89:
         8f:3d:84:7e:8c:cf:7e:a2
-----BEGIN CERTIFICATE-----
MIIHNzCCBR+gAwIBAgIBATANBgkqhkiG9w0BAQUFADCBmTELMAkGA1UEBhMCVVMx
CzAJBgNVBAgMAkNBMREwDwYDVQQHDAhTYW4gSm9zZTEgMB4GA1UECgwXV2dldCBU
ZXN0aW5nIERlcGFydG1lbnQxEDAOBgNVBAsMB1Rlc3RpbmcxFDASBgNVBAMMC1dn
ZXRUZXN0aW5nMSAwHgYJKoZIhvcNAQkBFhFidWdzLXdnZXRAZ251Lm9yZzAeFw0x
NzA1MTUxMTA1MDZaFw0xOTA1MTQwOTA1MDdaMGExGjAYBgNVBAMMEVdnZXRUZXN0
aW5nU2VydmVyMQswCQYDVQQIDAJDQTELMAkGA1UEBhMCVVMxGzAZBgkqhkiG9w0B
CQEWDFNlcnZlclRlc3RlcjEMMAoGA1UECgwDRGlzMIICIjANBgkqhkiG9w0BAQEF
AAOCAg8AMIICCgKCAgEAyheqOyrSCCcdO3QmpYwruXlVBwt6XroeJa4lDeQ6otIQ
BNyH+zLNG9T+SXfWsg6G3R8AkGNGrKm6Mn3kvyoUNvaIaw/QwF7q+fCeeggNGcZs
YxZs5ksJBuDyWROgArBHs4h3KJCMMLepmCBRdHTEc5t/01JCPoVYQMHnBBCT0olG
5sK1kej5T1v04WLvLaZl86uAp+sStuFsB/6fEqO8c82vRS4NQPbMfDPS5zliQoVI
77TYL17Onu0O7kC4sQAF6F4O7pYhTTOqg7wm2x/7NI26pX/zBHEOhOEX8TsKt9Hg
ZGuTYRweGe2/FbThN3QEeLhthoBNAzckZ8G2aPij4qLfCY/MxNGVB/A2ITL4XGGJ
/Ptet5ZuFoJRsplmBJzltGRgyw1Y/mON7ismRV5pUh70z4UdlEmLhicaqKEWIGqt
iZ5IoAvf2QwxLuNKAI42Q4PTEVEmWLF76Yaf2r5nbSfpCONqQXi/0r4cQexiX4wt
MfcsI7SBZfxVq2dowLi4Dt9qbpXfhMAz035brnk+1x6AVwvCv6OwmuQmYhHF9JUj
wSpdgJbF3erLiN5rks2s3vHzjflRFjjwlk5rJh/DwNLRFW0rY/48SHmKk/orCvtv
N8VL51oE6Yrsd+itgqIxpkYEhNzoJT+3TwikP32u6wt2x438vyNLm6V8paG0UcEC
AwEAAaOCAb8wggG7MA8GA1UdEwEB/wQFMAMBAf8wHQYDVR0OBBYEFMSIszx8mahG
p9ik6NfeDBMTeISBMB8GA1UdIwQYMBaAFBftk0OPp6YAddTotoINiDd+wG0IMAsG
A1UdDwQEAwIBpjATBgNVHSUEDDAKBggrBgEFBQcDATBdBgNVHR8EVjBUMCigJqAk
hiJodHRwOi8vdGVzdC53Z2V0dGVzdC5vcmcvQm9ndXMuY3JsMCigJqAkhiJodHRw
Oi8vdGVzdC53Z2V0dGVzdC5vcmcvQm9ndXMuY3JsMBwGA1UdEQQVMBOCEVdnZXRU
ZXN0aW5nU2VydmVyMIHIBggrBgEFBQcBAQSBuzCBuDAuBggrBgEFBQcwAoYiaHR0
cDovL3Rlc3Qud2dldHRlc3QuY29tL0JvZ3VzLmNydDAuBggrBgEFBQcwAoYiaHR0
cDovL3Rlc3Qud2dldHRlc3QuY29tL0JvZ3VzLmNydDAqBggrBgEFBQcwAYYeaHR0
cDovL3Rlc3Qud2dldHRlc3QuY29tL29jc3AvMCoGCCsGAQUFBzABhh5odHRwOi8v
dGVzdC53Z2V0dGVzdC5jb20vb2NzcC8wDQYJKoZIhvcNAQEFBQADggIBAB00p+x9
RK569kKbowCAHLcHyLGvSgG73oaL4OV170OkZ7JXckwjBqdjG+6vmxBBAvHT20bG
m747tAEGUo6Q66Eitfvdo340blmO4IqfzkdkAVAdNlrwcgSTBcsaWm6LMws7YHk8
X7rj8XpUYGfn+1yH4gJJXlACPHI4GdGZWaE/xP2CBmY25A+wnc0LCMRnFQmfkWH4
6EGkGRjvdHAjyrVL7+u0JnPkbVACfLvSD5T4tiuGTNRaazUF+mTJcWUr9DC/N6ZL
0Yi993SrbnSxjUajNc4km25Jf+EVQ1Oto93oyhsP1D8YAfZ9wYQWDF98OI/5yZjd
stgXZFUthv5HjwQJEcm29X/WJuuwBTq8BJGooVPrJOp0yewj0o/RLmf4mxnzBrxW
qWSB7adoJCMwqay8s9GRBRz+gbDi+eN7y3GwtIV0DfyQMQa8xTwfOgSBHPPCipdQ
w5WYqMbl2T9yQdwxAj7EZvlrzfrjz0D0ahUoo0FeR8mhul9zdDmyN0zX3YGOUsT2
oMnwjoP1juEvDucsBNcou03ptFdZXZnbQsu+rTW4xrNBLCzZIFaB1GQ0bNFleRZi
dvFMWRdm5J/JSKX/10klBJW+cLMuE4kfWZIROmwxVB/2TG3Y4Gvgt0bgt7sGV3gE
G+mItQAAgj4uwqDad0gByMIPiY89hH6Mz36i
-----END CERTIFICATE-----
